; ModuleID = '12/835.c'
source_filename = "12/835.c"
target datalayout = "e-m:e-p270:32:32-p271:32:32-p272:64:64-i64:64-f80:128-n8:16:32:64-S128"
target triple = "x86_64-pc-linux-gnu"

@.str = private unnamed_addr constant [3 x i8] c"%d\00", align 1
@.str.1 = private unnamed_addr constant [4 x i8] c"%d\0A\00", align 1

; Function Attrs: noinline nounwind uwtable
define dso_local void @main() #0 {
  %1 = alloca [20 x [16 x i32]], align 16
  %2 = alloca [20 x i32], align 16
  %3 = alloca i32, align 4
  %4 = alloca i32, align 4
  %5 = alloca i32, align 4
  %6 = alloca i32, align 4
  %7 = alloca [20 x i32], align 16
  %8 = bitcast [20 x i32]* %2 to i8*
  call void @llvm.memset.p0i8.i64(i8* align 16 %8, i8 0, i64 80, i1 false)
  store i32 0, i32* %6, align 4
  %9 = bitcast [20 x i32]* %7 to i8*
  call void @llvm.memset.p0i8.i64(i8* align 16 %9, i8 0, i64 80, i1 false)
  store i32 0, i32* %3, align 4
  br label %10

10:                                               ; preds = %62, %0
  %11 = load i32, i32* %3, align 4
  %12 = icmp slt i32 %11, 20
  br i1 %12, label %13, label %65

13:                                               ; preds = %10
  %14 = load i32, i32* %3, align 4
  %15 = sext i32 %14 to i64
  %16 = getelementptr inbounds [20 x [16 x i32]], [20 x [16 x i32]]* %1, i64 0, i64 %15
  %17 = getelementptr inbounds [16 x i32], [16 x i32]* %16, i64 0, i64 0
  %18 = call i32 (i8*, ...) @__isoc99_scanf(i8* getelementptr inbounds ([3 x i8], [3 x i8]* @.str, i64 0, i64 0), i32* %17)
  %19 = load i32, i32* %3, align 4
  %20 = sext i32 %19 to i64
  %21 = getelementptr inbounds [20 x [16 x i32]], [20 x [16 x i32]]* %1, i64 0, i64 %20
  %22 = getelementptr inbounds [16 x i32], [16 x i32]* %21, i64 0, i64 0
  %23 = load i32, i32* %22, align 16
  %24 = icmp eq i32 %23, -1
  br i1 %24, label %25, label %26

25:                                               ; preds = %13
  br label %65

26:                                               ; preds = %13
  %27 = load i32, i32* %6, align 4
  %28 = add nsw i32 %27, 1
  store i32 %28, i32* %6, align 4
  store i32 1, i32* %4, align 4
  br label %29

29:                                               ; preds = %58, %26
  %30 = load i32, i32* %4, align 4
  %31 = icmp slt i32 %30, 16
  br i1 %31, label %32, label %61

32:                                               ; preds = %29
  %33 = load i32, i32* %3, align 4
  %34 = sext i32 %33 to i64
  %35 = getelementptr inbounds [20 x [16 x i32]], [20 x [16 x i32]]* %1, i64 0, i64 %34
  %36 = load i32, i32* %4, align 4
  %37 = sext i32 %36 to i64
  %38 = getelementptr inbounds [16 x i32], [16 x i32]* %35, i64 0, i64 %37
  %39 = call i32 (i8*, ...) @__isoc99_scanf(i8* getelementptr inbounds ([3 x i8], [3 x i8]* @.str, i64 0, i64 0), i32* %38)
  %40 = load i32, i32* %3, align 4
  %41 = sext i32 %40 to i64
  %42 = getelementptr inbounds [20 x [16 x i32]], [20 x [16 x i32]]* %1, i64 0, i64 %41
  %43 = load i32, i32* %4, align 4
  %44 = sext i32 %43 to i64
  %45 = getelementptr inbounds [16 x i32], [16 x i32]* %42, i64 0, i64 %44
  %46 = load i32, i32* %45, align 4
  %47 = icmp eq i32 %46, 0
  br i1 %47, label %48, label %49

48:                                               ; preds = %32
  br label %61

49:                                               ; preds = %32
  %50 = load i32, i32* %3, align 4
  %51 = sext i32 %50 to i64
  %52 = getelementptr inbounds [20 x i32], [20 x i32]* %2, i64 0, i64 %51
  %53 = load i32, i32* %52, align 4
  %54 = add nsw i32 %53, 1
  %55 = load i32, i32* %3, align 4
  %56 = sext i32 %55 to i64
  %57 = getelementptr inbounds [20 x i32], [20 x i32]* %2, i64 0, i64 %56
  store i32 %54, i32* %57, align 4
  br label %58

58:                                               ; preds = %49
  %59 = load i32, i32* %4, align 4
  %60 = add nsw i32 %59, 1
  store i32 %60, i32* %4, align 4
  br label %29

61:                                               ; preds = %48, %29
  br label %62

62:                                               ; preds = %61
  %63 = load i32, i32* %3, align 4
  %64 = add nsw i32 %63, 1
  store i32 %64, i32* %3, align 4
  br label %10

65:                                               ; preds = %25, %10
  store i32 0, i32* %3, align 4
  br label %66

66:                                               ; preds = %121, %65
  %67 = load i32, i32* %3, align 4
  %68 = load i32, i32* %6, align 4
  %69 = icmp slt i32 %67, %68
  br i1 %69, label %70, label %124

70:                                               ; preds = %66
  store i32 0, i32* %4, align 4
  br label %71

71:                                               ; preds = %117, %70
  %72 = load i32, i32* %4, align 4
  %73 = load i32, i32* %3, align 4
  %74 = sext i32 %73 to i64
  %75 = getelementptr inbounds [20 x i32], [20 x i32]* %2, i64 0, i64 %74
  %76 = load i32, i32* %75, align 4
  %77 = icmp sle i32 %72, %76
  br i1 %77, label %78, label %120

78:                                               ; preds = %71
  store i32 0, i32* %5, align 4
  br label %79

79:                                               ; preds = %113, %78
  %80 = load i32, i32* %5, align 4
  %81 = load i32, i32* %3, align 4
  %82 = sext i32 %81 to i64
  %83 = getelementptr inbounds [20 x i32], [20 x i32]* %2, i64 0, i64 %82
  %84 = load i32, i32* %83, align 4
  %85 = icmp sle i32 %80, %84
  br i1 %85, label %86, label %116

86:                                               ; preds = %79
  %87 = load i32, i32* %3, align 4
  %88 = sext i32 %87 to i64
  %89 = getelementptr inbounds [20 x [16 x i32]], [20 x [16 x i32]]* %1, i64 0, i64 %88
  %90 = load i32, i32* %4, align 4
  %91 = sext i32 %90 to i64
  %92 = getelementptr inbounds [16 x i32], [16 x i32]* %89, i64 0, i64 %91
  %93 = load i32, i32* %92, align 4
  %94 = load i32, i32* %3, align 4
  %95 = sext i32 %94 to i64
  %96 = getelementptr inbounds [20 x [16 x i32]], [20 x [16 x i32]]* %1, i64 0, i64 %95
  %97 = load i32, i32* %5, align 4
  %98 = sext i32 %97 to i64
  %99 = getelementptr inbounds [16 x i32], [16 x i32]* %96, i64 0, i64 %98
  %100 = load i32, i32* %99, align 4
  %101 = mul nsw i32 2, %100
  %102 = icmp eq i32 %93, %101
  br i1 %102, label %103, label %112

103:                                              ; preds = %86
  %104 = load i32, i32* %3, align 4
  %105 = sext i32 %104 to i64
  %106 = getelementptr inbounds [20 x i32], [20 x i32]* %7, i64 0, i64 %105
  %107 = load i32, i32* %106, align 4
  %108 = add nsw i32 %107, 1
  %109 = load i32, i32* %3, align 4
  %110 = sext i32 %109 to i64
  %111 = getelementptr inbounds [20 x i32], [20 x i32]* %7, i64 0, i64 %110
  store i32 %108, i32* %111, align 4
  br label %112

112:                                              ; preds = %103, %86
  br label %113

113:                                              ; preds = %112
  %114 = load i32, i32* %5, align 4
  %115 = add nsw i32 %114, 1
  store i32 %115, i32* %5, align 4
  br label %79

116:                                              ; preds = %79
  br label %117

117:                                              ; preds = %116
  %118 = load i32, i32* %4, align 4
  %119 = add nsw i32 %118, 1
  store i32 %119, i32* %4, align 4
  br label %71

120:                                              ; preds = %71
  br label %121

121:                                              ; preds = %120
  %122 = load i32, i32* %3, align 4
  %123 = add nsw i32 %122, 1
  store i32 %123, i32* %3, align 4
  br label %66

124:                                              ; preds = %66
  store i32 0, i32* %3, align 4
  br label %125

125:                                              ; preds = %135, %124
  %126 = load i32, i32* %3, align 4
  %127 = load i32, i32* %6, align 4
  %128 = icmp slt i32 %126, %127
  br i1 %128, label %129, label %138

129:                                              ; preds = %125
  %130 = load i32, i32* %3, align 4
  %131 = sext i32 %130 to i64
  %132 = getelementptr inbounds [20 x i32], [20 x i32]* %7, i64 0, i64 %131
  %133 = load i32, i32* %132, align 4
  %134 = call i32 (i8*, ...) @printf(i8* getelementptr inbounds ([4 x i8], [4 x i8]* @.str.1, i64 0, i64 0), i32 %133)
  br label %135

135:                                              ; preds = %129
  %136 = load i32, i32* %3, align 4
  %137 = add nsw i32 %136, 1
  store i32 %137, i32* %3, align 4
  br label %125

138:                                              ; preds = %125
  ret void
}

; Function Attrs: argmemonly nounwind willreturn
declare void @llvm.memset.p0i8.i64(i8* nocapture writeonly, i8, i64, i1 immarg) #1

declare dso_local i32 @__isoc99_scanf(i8*, ...) #2

declare dso_local i32 @printf(i8*, ...) #2


!llvm.module.flags = !{!0}
!llvm.ident = !{!1}

!0 = !{i32 1, !"wchar_size", i32 4}
!1 = !{!"clang version 10.0.0-4ubuntu1 "}
